target datalayout = "e-m:e-p270:32:32-p271:32:32-p272:64:64-i64:64-i128:128-f80:128-n8:16:32:64-S128"
target triple = "x86_64-pc-linux-gnu"

%class.Phase = type { i32, ptr }
%class.CFGElement = type { ptr, double }

@StressGCM = external global i8, align 1

; Function Attrs: mustprogress nounwind uwtable
define hidden noundef zeroext i1 @_ZN8PhaseCFG16is_cheaper_blockEP5BlockP4Nodejjdib(ptr noundef nonnull align 8 dereferenceable(160) %0, ptr noundef %1, ptr noundef %2, i32 noundef %3, i32 noundef %4, double noundef %5, i32 noundef %6, i1 noundef zeroext %7) #1 align 2 {
  %9 = alloca i1, align 1
  %10 = alloca ptr, align 8
  %11 = alloca ptr, align 8
  %12 = alloca ptr, align 8
  %13 = alloca i32, align 4
  %14 = alloca i32, align 4
  %15 = alloca double, align 8
  %16 = alloca i32, align 4
  %17 = alloca i8, align 1
  %18 = alloca double, align 8
  store ptr %0, ptr %10, align 8
  store ptr %1, ptr %11, align 8
  store ptr %2, ptr %12, align 8
  store i32 %3, ptr %13, align 4
  store i32 %4, ptr %14, align 4
  store double %5, ptr %15, align 8
  store i32 %6, ptr %16, align 4
  %19 = zext i1 %7 to i8
  store i8 %19, ptr %17, align 1
  %20 = load ptr, ptr %10, align 8
  %21 = load i8, ptr @StressGCM, align 1
  %22 = trunc i8 %21 to i1
  br i1 %22, label %23, label %28

23:                                               ; preds = %8
  %24 = getelementptr inbounds %class.Phase, ptr %20, i32 0, i32 1
  %25 = load ptr, ptr %24, align 8
  %26 = load i32, ptr %16, align 4
  %27 = call noundef zeroext i1 @_ZN7Compile17randomized_selectEi(ptr noundef nonnull align 8 dereferenceable(2316) %25, i32 noundef %26)
  store i1 %27, ptr %9, align 1
  br label %54

28:                                               ; preds = %8
  %29 = load ptr, ptr %11, align 8
  %30 = getelementptr inbounds %class.CFGElement, ptr %29, i32 0, i32 1
  %31 = load double, ptr %30, align 8
  %32 = load double, ptr %15, align 8
  %33 = fcmp olt double %31, %32
  br i1 %33, label %34, label %35

34:                                               ; preds = %28
  store i1 true, ptr %9, align 1
  br label %54

35:                                               ; preds = %28
  store double 0x3FF00068E0000000, ptr %18, align 8
  %36 = load i8, ptr %17, align 1
  %37 = trunc i8 %36 to i1
  br i1 %37, label %53, label %38

38:                                               ; preds = %35
  %39 = load ptr, ptr %11, align 8
  %40 = getelementptr inbounds %class.CFGElement, ptr %39, i32 0, i32 1
  %41 = load double, ptr %40, align 8
  %42 = load double, ptr %15, align 8
  %43 = fmul double %42, 0x3FF00068E0000000
  %44 = fcmp olt double %41, %43
  br i1 %44, label %45, label %53

45:                                               ; preds = %38
  %46 = load i32, ptr %13, align 4
  %47 = load i32, ptr %14, align 4
  %48 = icmp uge i32 %46, %47
  br i1 %48, label %49, label %53

49:                                               ; preds = %45
  %50 = load ptr, ptr %12, align 8
  %51 = call noundef zeroext i1 @_ZN4Node23is_iteratively_computedEv(ptr noundef nonnull align 8 dereferenceable(52) %50)
  br i1 %51, label %53, label %52

52:                                               ; preds = %49
  store i1 true, ptr %9, align 1
  br label %54

53:                                               ; preds = %49, %45, %38, %35
  store i1 false, ptr %9, align 1
  br label %54

54:                                               ; preds = %53, %52, %34, %23
  %55 = load i1, ptr %9, align 1
  ret i1 %55
}