; Function Attrs: mustprogress nounwind uwtable
define hidden noundef zeroext i1 @_ZN8PhaseCFG16is_cheaper_blockEP5BlockP4Nodejjdib(ptr nocapture noundef nonnull readonly align 8 dereferenceable(160) %0, ptr nocapture noundef readonly %1, ptr noundef %2, i32 noundef %3, i32 noundef %4, double noundef %5, i32 noundef %6, i1 noundef zeroext %7) local_unnamed_addr #0 align 2 {
  %9 = load i8, ptr @StressGCM, align 1
  %10 = trunc i8 %9 to i1
  br i1 %10, label %11, label %15

11:                                               ; preds = %8
  %12 = getelementptr inbounds i8, ptr %0, i64 8
  %13 = load ptr, ptr %12, align 8
  %14 = tail call noundef zeroext i1 @_ZN7Compile17randomized_selectEi(ptr noundef nonnull align 8 dereferenceable(2316) %13, i32 noundef %6) #14
  br label %25

15:                                               ; preds = %8
  %16 = getelementptr inbounds i8, ptr %1, i64 8
  %17 = load double, ptr %16, align 8
  %18 = fcmp olt double %17, %5
  br i1 %18, label %25, label %19

19:                                               ; preds = %15
  %20 = fmul double %5, 0x3FF00068E0000000
  %21 = fcmp uge double %17, %20
  %or.cond.not16 = or i1 %21, %7
  %.not = icmp ult i32 %3, %4
  %or.cond14 = or i1 %.not, %or.cond.not16
  br i1 %or.cond14, label %24, label %22

22:                                               ; preds = %19
  %23 = tail call noundef zeroext i1 @_ZN4Node23is_iteratively_computedEv(ptr noundef nonnull align 8 dereferenceable(52) %2) #14
  br i1 %23, label %24, label %25

24:                                               ; preds = %22, %19
  br label %25

25:                                               ; preds = %22, %15, %24, %11
  %.0 = phi i1 [ %14, %11 ], [ false, %24 ], [ true, %15 ], [ true, %22 ]
  ret i1 %.0
}